target datalayout = "e-m:e-p270:32:32-p271:32:32-p272:64:64-i64:64-i128:128-f80:128-n8:16:32:64-S128"
target triple = "x86_64-unknown-linux-gnu"

@.str.4 = private unnamed_addr constant [2 x i8] c"(\00", align 1
@.str.5 = private unnamed_addr constant [2 x i8] c")\00", align 1
@.str.22 = private unnamed_addr constant [2 x i8] c"-\00", align 1

; Function Attrs: mustprogress uwtable
define hidden noundef ptr @_ZNK19smt2_pp_environment6mk_negEP3app(ptr noundef nonnull align 8 dereferenceable(56) %this, ptr noundef %f) #4 align 2 {
entry:
  %this.addr = alloca ptr, align 8
  %f.addr = alloca ptr, align 8
  %buffer = alloca [1 x ptr], align 8
  %ref.tmp = alloca ptr, align 8
  %ref.tmp2 = alloca ptr, align 8
  store ptr %this, ptr %this.addr, align 8
  store ptr %f, ptr %f.addr, align 8
  %this1 = load ptr, ptr %this.addr, align 8
  %arrayinit.begin = getelementptr inbounds [1 x ptr], ptr %buffer, i64 0, i64 0
  %0 = load ptr, ptr %f.addr, align 8
  store ptr %0, ptr %arrayinit.begin, align 8
  %vtable = load ptr, ptr %this1, align 8
  %vfn = getelementptr inbounds ptr, ptr %vtable, i64 2
  %1 = load ptr, ptr %vfn, align 8
  %call = call noundef nonnull align 8 dereferenceable(976) ptr %1(ptr noundef nonnull align 8 dereferenceable(56) %this1)
  %arraydecay = getelementptr inbounds [1 x ptr], ptr %buffer, i64 0, i64 0
  store ptr %arraydecay, ptr %ref.tmp, align 8
  %arraydecay3 = getelementptr inbounds [1 x ptr], ptr %buffer, i64 0, i64 0
  %add.ptr = getelementptr inbounds ptr, ptr %arraydecay3, i64 1
  store ptr %add.ptr, ptr %ref.tmp2, align 8
  %call4 = call noundef ptr @_ZN9format_ns7mk_seq1IPP3appNS_3f2fEEES2_R11ast_managerRKT_S9_T0_PKcSC_SC_(ptr noundef nonnull align 8 dereferenceable(976) %call, ptr noundef nonnull align 8 dereferenceable(8) %ref.tmp, ptr noundef nonnull align 8 dereferenceable(8) %ref.tmp2, ptr noundef @.str.22, ptr noundef @.str.4, ptr noundef @.str.5)
  ret ptr %call4
}