; Function Attrs: mustprogress uwtable
define hidden noundef ptr @_ZNK19smt2_pp_environment6mk_negEP3app(ptr noundef nonnull align 8 dereferenceable(56) %this, ptr noundef %f) local_unnamed_addr #3 align 2 {
entry:
  %buffer = alloca [1 x ptr], align 8
  %ref.tmp = alloca ptr, align 8
  %ref.tmp2 = alloca ptr, align 8
  store ptr %f, ptr %buffer, align 8
  %vtable = load ptr, ptr %this, align 8
  %vfn = getelementptr inbounds i8, ptr %vtable, i64 16
  %0 = load ptr, ptr %vfn, align 8
  %call = tail call noundef nonnull align 8 dereferenceable(976) ptr %0(ptr noundef nonnull align 8 dereferenceable(56) %this)
  store ptr %buffer, ptr %ref.tmp, align 8
  %add.ptr = getelementptr inbounds i8, ptr %buffer, i64 8
  store ptr %add.ptr, ptr %ref.tmp2, align 8
  %call4 = call noundef ptr @_ZN9format_ns7mk_seq1IPP3appNS_3f2fEEES2_R11ast_managerRKT_S9_T0_PKcSC_SC_(ptr noundef nonnull align 8 dereferenceable(976) %call, ptr noundef nonnull align 8 dereferenceable(8) %ref.tmp, ptr noundef nonnull align 8 dereferenceable(8) %ref.tmp2, ptr noundef nonnull @.str.22, ptr noundef nonnull @.str.4, ptr noundef nonnull @.str.5)
  ret ptr %call4
}